target datalayout = "e-m:e-p270:32:32-p271:32:32-p272:64:64-i64:64-i128:128-f80:128-n8:16:32:64-S128"
target triple = "x86_64-pc-linux-gnu"

%struct._zval_struct = type { %union._zend_value, %union.anon, %union.anon.2 }
%union._zend_value = type { i64 }
%union.anon = type { i32 }
%union.anon.2 = type { i32 }
%struct._zend_array = type { %struct._zend_refcounted_h, %union.anon.4, i32, %union.anon.6, i32, i32, i32, i32, i64, ptr }
%struct._zend_refcounted_h = type { i32, %union.anon.3 }
%union.anon.3 = type { i32 }
%union.anon.4 = type { i32 }
%union.anon.6 = type { ptr }
%struct._zend_phpdbg_globals = type { [11 x %struct._zend_array], %struct._zend_array, %struct._zend_array, ptr, ptr, %struct.phpdbg_frame_t, i32, ptr, %struct.phpdbg_lexer_data, ptr, %struct.sigaction, i32, i64, %struct.phpdbg_btree, %struct.phpdbg_btree, %struct._zend_array, %struct._zend_array, %struct._zend_array, %struct._zend_array, ptr, ptr, ptr, i8, ptr, ptr, ptr, i64, ptr, %struct._zval_struct, i32, i32, i8, i8, ptr, ptr, ptr, %struct._zend_array, ptr, ptr, ptr, [3 x %struct.anon.9], ptr, %struct.anon.10, i64, [2 x ptr], [3 x ptr], ptr, i8, ptr, ptr, [500 x i8], i32, %struct.phpdbg_signal_safe_mem, ptr, i64, ptr, i64 }
%struct.phpdbg_frame_t = type { i32, ptr, ptr }
%struct.phpdbg_lexer_data = type { i32, ptr, ptr, ptr, ptr, i32 }
%struct.sigaction = type { %union.anon.8, %struct.__sigset_t, i32, ptr }
%union.anon.8 = type { ptr }
%struct.__sigset_t = type { [16 x i64] }
%struct.phpdbg_btree = type { i64, i64, i8, ptr }
%struct.anon.9 = type { i32 }
%struct.anon.10 = type { i8, i32, i32, ptr, i32 }
%struct.phpdbg_signal_safe_mem = type { ptr, i8, ptr, ptr }
%struct.__jmp_buf_tag = type { [8 x i64], i32, %struct.__sigset_t }

@phpdbg_globals = hidden global %struct._zend_phpdbg_globals zeroinitializer, align 8

; Function Attrs: nounwind uwtable
define internal void @phpdbg_signal_handler(i32 noundef %0, ptr noundef %1, ptr noundef %2) #0 {
  %4 = alloca i32, align 4
  %5 = alloca ptr, align 8
  %6 = alloca ptr, align 8
  %7 = alloca i32, align 4
  store i32 %0, ptr %4, align 4, !tbaa !98
  store ptr %1, ptr %5, align 8, !tbaa !118
  store ptr %2, ptr %6, align 8, !tbaa !118
  call void @llvm.lifetime.start.p0(i64 4, ptr %7) #22
  store i32 -1, ptr %7, align 4, !tbaa !98
  %8 = load i32, ptr %4, align 4, !tbaa !98
  switch i32 %8, label %24 [
    i32 7, label %9
    i32 11, label %9
  ]

9:                                                ; preds = %3, %3
  %10 = load ptr, ptr %5, align 8, !tbaa !118
  %11 = load ptr, ptr %6, align 8, !tbaa !118
  %12 = call i32 @phpdbg_watchpoint_segfault_handler(ptr noundef %10, ptr noundef %11)
  store i32 %12, ptr %7, align 4, !tbaa !98
  %13 = load i32, ptr %7, align 4, !tbaa !98
  %14 = icmp eq i32 %13, -1
  br i1 %14, label %15, label %23

15:                                               ; preds = %9
  %16 = load ptr, ptr getelementptr inbounds nuw (%struct._zend_phpdbg_globals, ptr @phpdbg_globals, i32 0, i32 53), align 8, !tbaa !251
  %17 = icmp ne ptr %16, null
  br i1 %17, label %18, label %21

18:                                               ; preds = %15
  %19 = load ptr, ptr getelementptr inbounds nuw (%struct._zend_phpdbg_globals, ptr @phpdbg_globals, i32 0, i32 53), align 8, !tbaa !251
  %20 = getelementptr inbounds [1 x %struct.__jmp_buf_tag], ptr %19, i64 0, i64 0
  call void @siglongjmp(ptr noundef %20, i32 noundef -1) #30
  unreachable

21:                                               ; preds = %15
  %22 = load i32, ptr %4, align 4, !tbaa !98
  call void @zend_sigaction(i32 noundef %22, ptr noundef getelementptr inbounds nuw (%struct._zend_phpdbg_globals, ptr @phpdbg_globals, i32 0, i32 10), ptr noundef null)
  br label %23

23:                                               ; preds = %21, %9
  br label %24

24:                                               ; preds = %3, %23
  call void @llvm.lifetime.end.p0(i64 4, ptr %7) #22
  ret void
}