; Function Attrs: nounwind uwtable
define internal void @phpdbg_signal_handler(i32 noundef %0, ptr noundef %1, ptr noundef %2) #0 {
  switch i32 %0, label %11 [
    i32 7, label %4
    i32 11, label %4
  ]

4:                                                ; preds = %3, %3
  %5 = tail call i32 @phpdbg_watchpoint_segfault_handler(ptr noundef %1, ptr noundef %2) #27
  %6 = icmp eq i32 %5, -1
  br i1 %6, label %7, label %11

7:                                                ; preds = %4
  %8 = load ptr, ptr getelementptr inbounds nuw (i8, ptr @phpdbg_globals, i64 2176), align 8, !tbaa !183
  %.not = icmp eq ptr %8, null
  br i1 %.not, label %10, label %9

9:                                                ; preds = %7
  tail call void @siglongjmp(ptr noundef nonnull %8, i32 noundef -1) #33
  unreachable

10:                                               ; preds = %7
  tail call void @zend_sigaction(i32 noundef %0, ptr noundef nonnull getelementptr inbounds nuw (i8, ptr @phpdbg_globals, i64 840), ptr noundef null) #27
  br label %11

11:                                               ; preds = %4, %10, %3
  ret void
}